target datalayout = "e-m:e-p270:32:32-p271:32:32-p272:64:64-i64:64-i128:128-f80:128-n8:16:32:64-S128"
target triple = "x86_64-pc-linux-gnu"

%struct.stat = type { i64, i64, i64, i32, i32, i32, i32, i64, i64, i64, i64, %struct.timespec, %struct.timespec, %struct.timespec, [3 x i64] }
%struct.timespec = type { i64, i64 }

@.str.5 = private unnamed_addr constant [8 x i8] c"DISPLAY\00", align 1
@.str.6 = private unnamed_addr constant [54 x i8] c"No DISPLAY variable set, cannot setup x11 forwarding.\00", align 1
@.str.7 = private unnamed_addr constant [19 x i8] c"/tmp/.X11-unix/X%s\00", align 1
@.str.8 = private unnamed_addr constant [36 x i8] c"Cannot stat() local X11 socket `%s`\00", align 1
@.str.9 = private unnamed_addr constant [71 x i8] c"Error parsing DISPLAY environment variable. Cannot use X11 forwarding.\00", align 1

; Function Attrs: inlinehint nounwind willreturn memory(read) uwtable
define available_externally i32 @atoi(ptr noundef nonnull %0) #6 {
  %2 = alloca ptr, align 8
  store ptr %0, ptr %2, align 8
  %3 = load ptr, ptr %2, align 8
  %4 = call i64 @strtol(ptr noundef %3, ptr noundef null, i32 noundef 10) #11
  %5 = trunc i64 %4 to i32
  ret i32 %5
}

; Function Attrs: nounwind uwtable
define dso_local void @x11_get_display(ptr noundef %0, ptr noundef %1) #0 {
  %3 = alloca ptr, align 8
  %4 = alloca ptr, align 8
  %5 = alloca ptr, align 8
  %6 = alloca ptr, align 8
  %7 = alloca ptr, align 8
  %8 = alloca %struct.stat, align 8
  %9 = alloca ptr, align 8
  %10 = alloca i32, align 4
  store ptr %0, ptr %3, align 8
  store ptr %1, ptr %4, align 8
  call void @llvm.lifetime.start.p0(i64 8, ptr %5) #11
  call void @llvm.lifetime.start.p0(i64 8, ptr %6) #11
  call void @llvm.lifetime.start.p0(i64 8, ptr %7) #11
  %11 = load ptr, ptr %4, align 8
  store ptr null, ptr %11, align 8
  %12 = call ptr @getenv(ptr noundef @.str.5) #11
  %13 = call ptr @xstrdup(ptr noundef %12)
  store ptr %13, ptr %5, align 8
  %14 = load ptr, ptr %5, align 8
  %15 = icmp ne ptr %14, null
  br i1 %15, label %18, label %16

16:                                               ; preds = %2
  %17 = call i32 (ptr, ...) @error(ptr noundef @.str.6)
  call void @exit(i32 noundef -1) #12
  unreachable

18:                                               ; preds = %2
  %19 = load ptr, ptr %5, align 8
  %20 = getelementptr inbounds i8, ptr %19, i64 0
  %21 = load i8, ptr %20, align 1
  %22 = sext i8 %21 to i32
  %23 = icmp eq i32 %22, 58
  br i1 %23, label %24, label %45

24:                                               ; preds = %18
  call void @llvm.lifetime.start.p0(i64 144, ptr %8) #11
  call void @llvm.lifetime.start.p0(i64 8, ptr %9) #11
  %25 = load ptr, ptr %3, align 8
  store i16 0, ptr %25, align 2
  %26 = load ptr, ptr %5, align 8
  %27 = call ptr @strchr(ptr noundef %26, i32 noundef 46) #13
  store ptr %27, ptr %9, align 8
  %28 = load ptr, ptr %9, align 8
  %29 = icmp ne ptr %28, null
  br i1 %29, label %30, label %32

30:                                               ; preds = %24
  %31 = load ptr, ptr %9, align 8
  store i8 0, ptr %31, align 1
  br label %32

32:                                               ; preds = %30, %24
  %33 = load ptr, ptr %4, align 8
  %34 = load ptr, ptr %5, align 8
  %35 = getelementptr inbounds i8, ptr %34, i64 1
  call void (ptr, ptr, ...) @_xstrfmtcat(ptr noundef %33, ptr noundef @.str.7, ptr noundef %35)
  call void @slurm_xfree(ptr noundef %5)
  %36 = load ptr, ptr %4, align 8
  %37 = load ptr, ptr %36, align 8
  %38 = call i32 @stat(ptr noundef %37, ptr noundef %8) #11
  %39 = icmp ne i32 %38, 0
  br i1 %39, label %40, label %44

40:                                               ; preds = %32
  %41 = load ptr, ptr %4, align 8
  %42 = load ptr, ptr %41, align 8
  %43 = call i32 (ptr, ...) @error(ptr noundef @.str.8, ptr noundef %42)
  call void @exit(i32 noundef -1) #12
  unreachable

44:                                               ; preds = %32
  store i32 1, ptr %10, align 4
  call void @llvm.lifetime.end.p0(i64 8, ptr %9) #11
  call void @llvm.lifetime.end.p0(i64 144, ptr %8) #11
  br label %70

45:                                               ; preds = %18
  %46 = load ptr, ptr %5, align 8
  %47 = call ptr @strchr(ptr noundef %46, i32 noundef 58) #13
  store ptr %47, ptr %6, align 8
  %48 = load ptr, ptr %6, align 8
  %49 = icmp ne ptr %48, null
  br i1 %49, label %52, label %50

50:                                               ; preds = %45
  %51 = call i32 (ptr, ...) @error(ptr noundef @.str.9)
  call void @exit(i32 noundef -1) #12
  unreachable

52:                                               ; preds = %45
  %53 = load ptr, ptr %6, align 8
  store i8 0, ptr %53, align 1
  %54 = load ptr, ptr %6, align 8
  %55 = getelementptr inbounds nuw i8, ptr %54, i32 1
  store ptr %55, ptr %6, align 8
  %56 = load ptr, ptr %6, align 8
  %57 = call ptr @strchr(ptr noundef %56, i32 noundef 46) #13
  store ptr %57, ptr %7, align 8
  %58 = load ptr, ptr %7, align 8
  %59 = icmp ne ptr %58, null
  br i1 %59, label %60, label %62

60:                                               ; preds = %52
  %61 = load ptr, ptr %7, align 8
  store i8 0, ptr %61, align 1
  br label %62

62:                                               ; preds = %60, %52
  %63 = load ptr, ptr %6, align 8
  %64 = call i32 @atoi(ptr noundef %63) #13
  %65 = add nsw i32 %64, 6000
  %66 = trunc i32 %65 to i16
  %67 = load ptr, ptr %3, align 8
  store i16 %66, ptr %67, align 2
  %68 = load ptr, ptr %5, align 8
  %69 = load ptr, ptr %4, align 8
  store ptr %68, ptr %69, align 8
  store i32 0, ptr %10, align 4
  br label %70

70:                                               ; preds = %62, %44
  call void @llvm.lifetime.end.p0(i64 8, ptr %7) #11
  call void @llvm.lifetime.end.p0(i64 8, ptr %6) #11
  call void @llvm.lifetime.end.p0(i64 8, ptr %5) #11
  %71 = load i32, ptr %10, align 4
  switch i32 %71, label %73 [
    i32 0, label %72
    i32 1, label %72
  ]

72:                                               ; preds = %70, %70
  ret void

73:                                               ; preds = %70
  unreachable
}