; Function Attrs: nounwind uwtable
define dso_local void @x11_get_display(ptr noundef writeonly captures(none) %0, ptr noundef initializes((0, 8)) %1) local_unnamed_addr #0 {
  %3 = alloca ptr, align 8
  %4 = alloca %struct.stat, align 8
  call void @llvm.lifetime.start.p0(i64 8, ptr nonnull %3) #15
  store ptr null, ptr %1, align 8
  %5 = tail call ptr @getenv(ptr noundef nonnull @.str.5) #15
  %6 = tail call ptr @xstrdup(ptr noundef %5) #15
  store ptr %6, ptr %3, align 8
  %.not = icmp eq ptr %6, null
  br i1 %.not, label %7, label %9

7:                                                ; preds = %2
  %8 = tail call i32 (ptr, ...) @error(ptr noundef nonnull @.str.6) #15
  tail call void @exit(i32 noundef -1) #16
  unreachable

9:                                                ; preds = %2
  %10 = load i8, ptr %6, align 1
  %11 = icmp eq i8 %10, 58
  br i1 %11, label %12, label %23

12:                                               ; preds = %9
  call void @llvm.lifetime.start.p0(i64 144, ptr nonnull %4) #15
  store i16 0, ptr %0, align 2
  %13 = tail call ptr @strchr(ptr noundef nonnull dereferenceable(1) %6, i32 noundef 46) #17
  %.not21 = icmp eq ptr %13, null
  br i1 %.not21, label %15, label %14

14:                                               ; preds = %12
  store i8 0, ptr %13, align 1
  br label %15

15:                                               ; preds = %14, %12
  %16 = getelementptr inbounds nuw i8, ptr %6, i64 1
  tail call void (ptr, ptr, ...) @_xstrfmtcat(ptr noundef nonnull %1, ptr noundef nonnull @.str.7, ptr noundef nonnull %16) #15
  call void @slurm_xfree(ptr noundef nonnull %3) #15
  %17 = load ptr, ptr %1, align 8
  %18 = call i32 @stat(ptr noundef %17, ptr noundef nonnull %4) #15
  %.not22 = icmp eq i32 %18, 0
  br i1 %.not22, label %22, label %19

19:                                               ; preds = %15
  %20 = load ptr, ptr %1, align 8
  %21 = call i32 (ptr, ...) @error(ptr noundef nonnull @.str.8, ptr noundef %20) #15
  call void @exit(i32 noundef -1) #16
  unreachable

22:                                               ; preds = %15
  call void @llvm.lifetime.end.p0(i64 144, ptr nonnull %4) #15
  br label %35

23:                                               ; preds = %9
  %24 = tail call ptr @strchr(ptr noundef nonnull dereferenceable(1) %6, i32 noundef 58) #17
  %.not19 = icmp eq ptr %24, null
  br i1 %.not19, label %25, label %27

25:                                               ; preds = %23
  %26 = tail call i32 (ptr, ...) @error(ptr noundef nonnull @.str.9) #15
  tail call void @exit(i32 noundef -1) #16
  unreachable

27:                                               ; preds = %23
  store i8 0, ptr %24, align 1
  %28 = getelementptr inbounds nuw i8, ptr %24, i64 1
  %29 = tail call ptr @strchr(ptr noundef nonnull dereferenceable(1) %28, i32 noundef 46) #17
  %.not20 = icmp eq ptr %29, null
  br i1 %.not20, label %31, label %30

30:                                               ; preds = %27
  store i8 0, ptr %29, align 1
  br label %31

31:                                               ; preds = %30, %27
  %32 = tail call i64 @strtol(ptr noundef nonnull captures(none) %28, ptr noundef null, i32 noundef 10) #15
  %33 = trunc i64 %32 to i16
  %34 = add i16 %33, 6000
  store i16 %34, ptr %0, align 2
  store ptr %6, ptr %1, align 8
  br label %35

35:                                               ; preds = %31, %22
  call void @llvm.lifetime.end.p0(i64 8, ptr nonnull %3) #15
  ret void
}